; Function Attrs: nounwind uwtable
define range(i32 -2, 1) i32 @KINSetEtaConstValue(ptr noundef writeonly %0, double noundef %1) local_unnamed_addr #0 {
  %3 = icmp eq ptr %0, null
  br i1 %3, label %4, label %5

4:                                                ; preds = %2
  tail call void (ptr, i32, ptr, ptr, ptr, ...) @KINProcessError(ptr noundef null, i32 noundef -1, ptr noundef nonnull @.str, ptr noundef nonnull @.str.21, ptr noundef nonnull @.str.2) #6
  br label %14

5:                                                ; preds = %2
  %6 = fcmp olt double %1, 0.000000e+00
  %7 = fcmp ogt double %1, 1.000000e+00
  %or.cond = or i1 %6, %7
  br i1 %or.cond, label %8, label %9

8:                                                ; preds = %5
  tail call void (ptr, i32, ptr, ptr, ptr, ...) @KINProcessError(ptr noundef null, i32 noundef -2, ptr noundef nonnull @.str, ptr noundef nonnull @.str.21, ptr noundef nonnull @.str.22) #6
  br label %14

9:                                                ; preds = %5
  %10 = fcmp oeq double %1, 0.000000e+00
  %11 = getelementptr inbounds nuw i8, ptr %0, i64 168
  br i1 %10, label %12, label %13

12:                                               ; preds = %9
  store double 1.000000e-01, ptr %11, align 8
  br label %14

13:                                               ; preds = %9
  store double %1, ptr %11, align 8
  br label %14

14:                                               ; preds = %12, %13, %8, %4
  %.0 = phi i32 [ -1, %4 ], [ -2, %8 ], [ 0, %13 ], [ 0, %12 ]
  ret i32 %.0
}